target datalayout = "e-m:e-p270:32:32-p271:32:32-p272:64:64-i64:64-i128:128-f80:128-n8:16:32:64-S128"
target triple = "x86_64-pc-linux-gnu"

%struct.VuDev = type { i32, i32, ptr, ptr, %struct.VuDevInflightInfo, i32, %union.pthread_mutex_t, i32, i64, ptr, i64, i64, i8, i16, ptr, ptr, ptr, ptr, ptr, i32, i8 }
%struct.VuDevInflightInfo = type { i32, ptr, i64 }
%union.pthread_mutex_t = type { %struct.__pthread_mutex_s }
%struct.__pthread_mutex_s = type { i32, i32, i32, i32, i32, i16, i16, %struct.__pthread_internal_list }
%struct.__pthread_internal_list = type { ptr, ptr }
%struct.VuVirtq = type { %struct.VuRing, ptr, ptr, i16, i64, i16, i16, i16, i16, i8, i8, i32, ptr, i32, i32, i32, i32, i8, %struct.vhost_vring_addr }
%struct.VuRing = type { i32, ptr, ptr, ptr, i64, i32 }
%struct.vhost_vring_addr = type { i32, i32, i64, i64, i64, i64 }
%struct.VhostUserMsg = type <{ i32, i32, i32, %union.anon, [8 x i32], i32, ptr }>
%union.anon = type { %struct.VhostUserMemory, [8 x i8] }
%struct.VhostUserMemory = type { i32, i32, [8 x %struct.VhostUserMemoryRegion] }
%struct.VhostUserMemoryRegion = type { i64, i64, i64, i64 }
%struct.VuDevIface = type { ptr, ptr, ptr, ptr, ptr, ptr, ptr, ptr, ptr, ptr }
%struct.vhost_vring_state = type { i32, i32 }

@.str.77 = private unnamed_addr constant [24 x i8] c"Invalid queue index: %u\00", align 1

; Function Attrs: nounwind uwtable
define internal zeroext i1 @vu_handle_vring_kick(ptr noundef %0, ptr noundef %1) #0 {
  %3 = alloca i1, align 1
  %4 = alloca ptr, align 8
  %5 = alloca ptr, align 8
  %6 = alloca i32, align 4
  %7 = alloca i32, align 4
  store ptr %0, ptr %4, align 8
  store ptr %1, ptr %5, align 8
  call void @llvm.lifetime.start.p0(i64 4, ptr %6) #13
  %8 = load ptr, ptr %5, align 8
  %9 = getelementptr inbounds nuw %struct.VhostUserMsg, ptr %8, i32 0, i32 3
  %10 = getelementptr inbounds nuw %struct.vhost_vring_state, ptr %9, i32 0, i32 0
  %11 = load i32, ptr %10, align 1
  store i32 %11, ptr %6, align 4
  %12 = load i32, ptr %6, align 4
  %13 = load ptr, ptr %4, align 8
  %14 = getelementptr inbounds nuw %struct.VuDev, ptr %13, i32 0, i32 13
  %15 = load i16, ptr %14, align 2
  %16 = zext i16 %15 to i32
  %17 = icmp uge i32 %12, %16
  br i1 %17, label %18, label %21

18:                                               ; preds = %2
  %19 = load ptr, ptr %4, align 8
  %20 = load i32, ptr %6, align 4
  call void (ptr, ptr, ...) @vu_panic(ptr noundef %19, ptr noundef @.str.77, i32 noundef %20)
  store i1 false, ptr %3, align 1
  store i32 1, ptr %7, align 4
  br label %79

21:                                               ; preds = %2
  br label %22

22:                                               ; preds = %21
  br label %23

23:                                               ; preds = %22
  br label %24

24:                                               ; preds = %23
  %25 = load ptr, ptr %4, align 8
  %26 = getelementptr inbounds nuw %struct.VuDev, ptr %25, i32 0, i32 3
  %27 = load ptr, ptr %26, align 8
  %28 = load i32, ptr %6, align 4
  %29 = zext i32 %28 to i64
  %30 = getelementptr inbounds nuw %struct.VuVirtq, ptr %27, i64 %29
  %31 = getelementptr inbounds nuw %struct.VuVirtq, ptr %30, i32 0, i32 17
  %32 = load i8, ptr %31, align 8, !range !5, !noundef !6
  %33 = trunc i8 %32 to i1
  br i1 %33, label %57, label %34

34:                                               ; preds = %24
  %35 = load ptr, ptr %4, align 8
  %36 = getelementptr inbounds nuw %struct.VuDev, ptr %35, i32 0, i32 3
  %37 = load ptr, ptr %36, align 8
  %38 = load i32, ptr %6, align 4
  %39 = zext i32 %38 to i64
  %40 = getelementptr inbounds nuw %struct.VuVirtq, ptr %37, i64 %39
  %41 = getelementptr inbounds nuw %struct.VuVirtq, ptr %40, i32 0, i32 17
  store i8 1, ptr %41, align 8
  %42 = load ptr, ptr %4, align 8
  %43 = getelementptr inbounds nuw %struct.VuDev, ptr %42, i32 0, i32 18
  %44 = load ptr, ptr %43, align 8
  %45 = getelementptr inbounds nuw %struct.VuDevIface, ptr %44, i32 0, i32 5
  %46 = load ptr, ptr %45, align 8
  %47 = icmp ne ptr %46, null
  br i1 %47, label %48, label %56

48:                                               ; preds = %34
  %49 = load ptr, ptr %4, align 8
  %50 = getelementptr inbounds nuw %struct.VuDev, ptr %49, i32 0, i32 18
  %51 = load ptr, ptr %50, align 8
  %52 = getelementptr inbounds nuw %struct.VuDevIface, ptr %51, i32 0, i32 5
  %53 = load ptr, ptr %52, align 8
  %54 = load ptr, ptr %4, align 8
  %55 = load i32, ptr %6, align 4
  call void %53(ptr noundef %54, i32 noundef %55, i1 noundef zeroext true)
  br label %56

56:                                               ; preds = %48, %34
  br label %57

57:                                               ; preds = %56, %24
  %58 = load ptr, ptr %4, align 8
  %59 = getelementptr inbounds nuw %struct.VuDev, ptr %58, i32 0, i32 3
  %60 = load ptr, ptr %59, align 8
  %61 = load i32, ptr %6, align 4
  %62 = zext i32 %61 to i64
  %63 = getelementptr inbounds nuw %struct.VuVirtq, ptr %60, i64 %62
  %64 = getelementptr inbounds nuw %struct.VuVirtq, ptr %63, i32 0, i32 12
  %65 = load ptr, ptr %64, align 8
  %66 = icmp ne ptr %65, null
  br i1 %66, label %67, label %78

67:                                               ; preds = %57
  %68 = load ptr, ptr %4, align 8
  %69 = getelementptr inbounds nuw %struct.VuDev, ptr %68, i32 0, i32 3
  %70 = load ptr, ptr %69, align 8
  %71 = load i32, ptr %6, align 4
  %72 = zext i32 %71 to i64
  %73 = getelementptr inbounds nuw %struct.VuVirtq, ptr %70, i64 %72
  %74 = getelementptr inbounds nuw %struct.VuVirtq, ptr %73, i32 0, i32 12
  %75 = load ptr, ptr %74, align 8
  %76 = load ptr, ptr %4, align 8
  %77 = load i32, ptr %6, align 4
  call void %75(ptr noundef %76, i32 noundef %77)
  br label %78

78:                                               ; preds = %67, %57
  store i1 false, ptr %3, align 1
  store i32 1, ptr %7, align 4
  br label %79

79:                                               ; preds = %78, %18
  call void @llvm.lifetime.end.p0(i64 4, ptr %6) #13
  %80 = load i1, ptr %3, align 1
  ret i1 %80
}