; Function Attrs: nounwind uwtable
define internal fastcc void @vu_handle_vring_kick(ptr noundef %0, i32 %.12.val) unnamed_addr #3 {
  %2 = getelementptr inbounds nuw i8, ptr %0, i64 138
  %3 = load i16, ptr %2, align 2
  %4 = zext i16 %3 to i32
  %.not = icmp ult i32 %.12.val, %4
  br i1 %.not, label %6, label %5

5:                                                ; preds = %1
  tail call void (ptr, ptr, ...) @vu_panic(ptr noundef nonnull %0, ptr noundef nonnull @.str.77, i32 noundef %.12.val)
  br label %24

6:                                                ; preds = %1
  %7 = getelementptr inbounds nuw i8, ptr %0, i64 16
  %8 = load ptr, ptr %7, align 8
  %9 = zext nneg i32 %.12.val to i64
  %10 = getelementptr inbounds nuw %struct.VuVirtq, ptr %8, i64 %9, i32 17
  %11 = load i8, ptr %10, align 8, !range !5, !noundef !6
  %12 = trunc nuw i8 %11 to i1
  br i1 %12, label %19, label %13

13:                                               ; preds = %6
  store i8 1, ptr %10, align 8
  %14 = getelementptr inbounds nuw i8, ptr %0, i64 176
  %15 = load ptr, ptr %14, align 8
  %16 = getelementptr inbounds nuw i8, ptr %15, i64 40
  %17 = load ptr, ptr %16, align 8
  %.not21 = icmp eq ptr %17, null
  br i1 %.not21, label %19, label %18

18:                                               ; preds = %13
  tail call void %17(ptr noundef nonnull %0, i32 noundef %.12.val, i1 noundef zeroext true) #21
  br label %19

19:                                               ; preds = %13, %18, %6
  %20 = load ptr, ptr %7, align 8
  %21 = getelementptr inbounds nuw %struct.VuVirtq, ptr %20, i64 %9, i32 12
  %22 = load ptr, ptr %21, align 8
  %.not22 = icmp eq ptr %22, null
  br i1 %.not22, label %24, label %23

23:                                               ; preds = %19
  tail call void %22(ptr noundef nonnull %0, i32 noundef %.12.val) #21
  br label %24

24:                                               ; preds = %19, %23, %5
  ret void
}